target datalayout = "e-m:e-p270:32:32-p271:32:32-p272:64:64-i64:64-i128:128-f80:128-n8:16:32:64-S128"
target triple = "x86_64-pc-linux-gnu"

%struct.SDL_AtomicInt = type { i32 }

@SDL_HIDAPI_change_count = internal global i32 0, align 4
@SDL_HIDAPI_updating_devices = internal global %struct.SDL_AtomicInt zeroinitializer, align 4

; Function Attrs: nounwind uwtable
define internal void @HIDAPI_FinishUpdatingDevices() #0 {
  %1 = call i32 @SDL_SetAtomicInt_REAL(ptr noundef @SDL_HIDAPI_updating_devices, i32 noundef 0)
  ret void
}

; Function Attrs: nounwind uwtable
define internal zeroext i1 @HIDAPI_StartUpdatingDevices() #0 {
  %1 = call zeroext i1 @SDL_CompareAndSwapAtomicInt_REAL(ptr noundef @SDL_HIDAPI_updating_devices, i32 noundef 0, i32 noundef 1)
  ret i1 %1
}

; Function Attrs: nounwind uwtable
define internal void @HIDAPI_JoystickDetect() #0 {
  %1 = alloca i32, align 4
  %2 = call zeroext i1 @HIDAPI_StartUpdatingDevices()
  br i1 %2, label %3, label %11

3:                                                ; preds = %0
  call void @llvm.lifetime.start.p0(i64 4, ptr %1) #7
  %4 = call i32 @SDL_hid_device_change_count_REAL()
  store i32 %4, ptr %1, align 4
  %5 = load i32, ptr @SDL_HIDAPI_change_count, align 4
  %6 = load i32, ptr %1, align 4
  %7 = icmp ne i32 %5, %6
  br i1 %7, label %8, label %10

8:                                                ; preds = %3
  %9 = load i32, ptr %1, align 4
  store i32 %9, ptr @SDL_HIDAPI_change_count, align 4
  call void @HIDAPI_UpdateDeviceList()
  br label %10

10:                                               ; preds = %8, %3
  call void @HIDAPI_FinishUpdatingDevices()
  call void @llvm.lifetime.end.p0(i64 4, ptr %1) #7
  br label %11

11:                                               ; preds = %10, %0
  ret void
}