; Function Attrs: nounwind uwtable
define internal void @HIDAPI_JoystickDetect() #0 {
  %1 = tail call zeroext i1 @SDL_CompareAndSwapAtomicInt_REAL(ptr noundef nonnull @SDL_HIDAPI_updating_devices, i32 noundef 0, i32 noundef 1) #9
  br i1 %1, label %2, label %8

2:                                                ; preds = %0
  %3 = tail call i32 @SDL_hid_device_change_count_REAL() #9
  %4 = load i32, ptr @SDL_HIDAPI_change_count, align 4
  %.not = icmp eq i32 %4, %3
  br i1 %.not, label %6, label %5

5:                                                ; preds = %2
  store i32 %3, ptr @SDL_HIDAPI_change_count, align 4
  tail call fastcc void @HIDAPI_UpdateDeviceList()
  br label %6

6:                                                ; preds = %5, %2
  %7 = tail call i32 @SDL_SetAtomicInt_REAL(ptr noundef nonnull @SDL_HIDAPI_updating_devices, i32 noundef 0) #9
  br label %8

8:                                                ; preds = %6, %0
  ret void
}